target datalayout = "e-m:e-p270:32:32-p271:32:32-p272:64:64-i64:64-i128:128-f80:128-n8:16:32:64-S128"
target triple = "x86_64-pc-linux-gnu"

; Function Attrs: inlinehint mustprogress nounwind uwtable
define internal noundef zeroext i1 @"_ZZN4LIEF5MachO8DyldInfo19update_binding_infoERNS_15vector_iostreamERNS0_7details17dyld_info_commandEENK3$_2clEPKNS0_15DyldBindingInfoESA_"(ptr noundef nonnull align 1 dereferenceable(1) %0, ptr noundef %1, ptr noundef %2) #5 align 2 {
  %4 = alloca ptr, align 8
  %5 = alloca ptr, align 8
  %6 = alloca ptr, align 8
  store ptr %0, ptr %4, align 8, !tbaa !139
  store ptr %1, ptr %5, align 8, !tbaa !362
  store ptr %2, ptr %6, align 8, !tbaa !362
  %7 = load ptr, ptr %5, align 8, !tbaa !362
  %8 = load ptr, ptr %7, align 8, !tbaa !17
  %9 = getelementptr inbounds ptr, ptr %8, i64 5
  %10 = load ptr, ptr %9, align 8
  %11 = call noundef i64 %10(ptr noundef nonnull align 8 dereferenceable(64) %7)
  %12 = load ptr, ptr %6, align 8, !tbaa !362
  %13 = load ptr, ptr %12, align 8, !tbaa !17
  %14 = getelementptr inbounds ptr, ptr %13, i64 5
  %15 = load ptr, ptr %14, align 8
  %16 = call noundef i64 %15(ptr noundef nonnull align 8 dereferenceable(64) %12)
  %17 = icmp ult i64 %11, %16
  ret i1 %17
}

; Function Attrs: mustprogress nounwind uwtable
define linkonce_odr hidden noundef ptr @_ZNKSt9_Any_data9_M_accessEv(ptr noundef nonnull align 8 dereferenceable(16) %0) #0 comdat align 2 {
  %2 = alloca ptr, align 8
  store ptr %0, ptr %2, align 8, !tbaa !1777
  %3 = load ptr, ptr %2, align 8
  %4 = getelementptr inbounds [16 x i8], ptr %3, i64 0, i64 0
  ret ptr %4
}

; Function Attrs: mustprogress nounwind uwtable
define internal noundef zeroext i1 @"_ZSt13__invoke_implIbRZN4LIEF5MachO8DyldInfo19update_binding_infoERNS0_15vector_iostreamERNS1_7details17dyld_info_commandEE3$_2JPNS1_15DyldBindingInfoESB_EET_St14__invoke_otherOT0_DpOT1_"(ptr noundef nonnull align 1 dereferenceable(1) %0, ptr noundef nonnull align 8 dereferenceable(8) %1, ptr noundef nonnull align 8 dereferenceable(8) %2) #0 {
  %4 = alloca ptr, align 8
  %5 = alloca ptr, align 8
  %6 = alloca ptr, align 8
  store ptr %0, ptr %4, align 8, !tbaa !139
  store ptr %1, ptr %5, align 8, !tbaa !389
  store ptr %2, ptr %6, align 8, !tbaa !389
  %7 = load ptr, ptr %4, align 8, !tbaa !139
  %8 = load ptr, ptr %5, align 8, !tbaa !389
  %9 = load ptr, ptr %8, align 8, !tbaa !362
  %10 = load ptr, ptr %6, align 8, !tbaa !389
  %11 = load ptr, ptr %10, align 8, !tbaa !362
  %12 = call noundef zeroext i1 @"_ZZN4LIEF5MachO8DyldInfo19update_binding_infoERNS_15vector_iostreamERNS0_7details17dyld_info_commandEENK3$_2clEPKNS0_15DyldBindingInfoESA_"(ptr noundef nonnull align 1 dereferenceable(1) %7, ptr noundef %9, ptr noundef %11)
  ret i1 %12
}

; Function Attrs: mustprogress nounwind uwtable
define internal noundef nonnull align 1 dereferenceable(1) ptr @"_ZNKSt9_Any_data9_M_accessIZN4LIEF5MachO8DyldInfo19update_binding_infoERNS1_15vector_iostreamERNS2_7details17dyld_info_commandEE3$_2EERKT_v"(ptr noundef nonnull align 8 dereferenceable(16) %0) #0 align 2 {
  %2 = alloca ptr, align 8
  store ptr %0, ptr %2, align 8, !tbaa !1777
  %3 = load ptr, ptr %2, align 8
  %4 = call noundef ptr @_ZNKSt9_Any_data9_M_accessEv(ptr noundef nonnull align 8 dereferenceable(16) %3) #21
  ret ptr %4
}

; Function Attrs: mustprogress nounwind uwtable
define internal noundef zeroext i1 @"_ZSt10__invoke_rIbRZN4LIEF5MachO8DyldInfo19update_binding_infoERNS0_15vector_iostreamERNS1_7details17dyld_info_commandEE3$_2JPNS1_15DyldBindingInfoESB_EENSt9enable_ifIX16is_invocable_r_vIT_T0_DpT1_EESD_E4typeEOSE_DpOSF_"(ptr noundef nonnull align 1 dereferenceable(1) %0, ptr noundef nonnull align 8 dereferenceable(8) %1, ptr noundef nonnull align 8 dereferenceable(8) %2) #0 {
  %4 = alloca ptr, align 8
  %5 = alloca ptr, align 8
  %6 = alloca ptr, align 8
  store ptr %0, ptr %4, align 8, !tbaa !139
  store ptr %1, ptr %5, align 8, !tbaa !389
  store ptr %2, ptr %6, align 8, !tbaa !389
  %7 = load ptr, ptr %4, align 8, !tbaa !139
  %8 = load ptr, ptr %5, align 8, !tbaa !389
  %9 = load ptr, ptr %6, align 8, !tbaa !389
  %10 = call noundef zeroext i1 @"_ZSt13__invoke_implIbRZN4LIEF5MachO8DyldInfo19update_binding_infoERNS0_15vector_iostreamERNS1_7details17dyld_info_commandEE3$_2JPNS1_15DyldBindingInfoESB_EET_St14__invoke_otherOT0_DpOT1_"(ptr noundef nonnull align 1 dereferenceable(1) %7, ptr noundef nonnull align 8 dereferenceable(8) %8, ptr noundef nonnull align 8 dereferenceable(8) %9)
  ret i1 %10
}

; Function Attrs: mustprogress nounwind uwtable
define internal noundef ptr @"_ZNSt14_Function_base13_Base_managerIZN4LIEF5MachO8DyldInfo19update_binding_infoERNS1_15vector_iostreamERNS2_7details17dyld_info_commandEE3$_2E14_M_get_pointerERKSt9_Any_data"(ptr noundef nonnull align 8 dereferenceable(16) %0) #0 align 2 {
  %2 = alloca ptr, align 8
  %3 = alloca ptr, align 8
  store ptr %0, ptr %2, align 8, !tbaa !1777
  call void @llvm.lifetime.start.p0(i64 8, ptr %3) #21
  %4 = load ptr, ptr %2, align 8, !tbaa !1777
  %5 = call noundef nonnull align 1 dereferenceable(1) ptr @"_ZNKSt9_Any_data9_M_accessIZN4LIEF5MachO8DyldInfo19update_binding_infoERNS1_15vector_iostreamERNS2_7details17dyld_info_commandEE3$_2EERKT_v"(ptr noundef nonnull align 8 dereferenceable(16) %4) #21
  store ptr %5, ptr %3, align 8, !tbaa !139
  %6 = load ptr, ptr %3, align 8, !tbaa !139
  call void @llvm.lifetime.end.p0(i64 8, ptr %3) #21
  ret ptr %6
}

; Function Attrs: mustprogress nounwind uwtable
define internal noundef zeroext i1 @"_ZNSt17_Function_handlerIFbPN4LIEF5MachO15DyldBindingInfoES3_EZNS1_8DyldInfo19update_binding_infoERNS0_15vector_iostreamERNS1_7details17dyld_info_commandEE3$_2E9_M_invokeERKSt9_Any_dataOS3_SG_"(ptr noundef nonnull align 8 dereferenceable(16) %0, ptr noundef nonnull align 8 dereferenceable(8) %1, ptr noundef nonnull align 8 dereferenceable(8) %2) #0 align 2 {
  %4 = alloca ptr, align 8
  %5 = alloca ptr, align 8
  %6 = alloca ptr, align 8
  store ptr %0, ptr %4, align 8, !tbaa !1777
  store ptr %1, ptr %5, align 8, !tbaa !389
  store ptr %2, ptr %6, align 8, !tbaa !389
  %7 = load ptr, ptr %4, align 8, !tbaa !1777
  %8 = call noundef ptr @"_ZNSt14_Function_base13_Base_managerIZN4LIEF5MachO8DyldInfo19update_binding_infoERNS1_15vector_iostreamERNS2_7details17dyld_info_commandEE3$_2E14_M_get_pointerERKSt9_Any_data"(ptr noundef nonnull align 8 dereferenceable(16) %7) #21
  %9 = load ptr, ptr %5, align 8, !tbaa !389
  %10 = load ptr, ptr %6, align 8, !tbaa !389
  %11 = call noundef zeroext i1 @"_ZSt10__invoke_rIbRZN4LIEF5MachO8DyldInfo19update_binding_infoERNS0_15vector_iostreamERNS1_7details17dyld_info_commandEE3$_2JPNS1_15DyldBindingInfoESB_EENSt9enable_ifIX16is_invocable_r_vIT_T0_DpT1_EESD_E4typeEOSE_DpOSF_"(ptr noundef nonnull align 1 dereferenceable(1) %8, ptr noundef nonnull align 8 dereferenceable(8) %9, ptr noundef nonnull align 8 dereferenceable(8) %10)
  ret i1 %11
}