; Function Attrs: mustprogress nounwind uwtable
define internal noundef zeroext i1 @"_ZNSt17_Function_handlerIFbPN4LIEF5MachO15DyldBindingInfoES3_EZNS1_8DyldInfo19update_binding_infoERNS0_15vector_iostreamERNS1_7details17dyld_info_commandEE3$_2E9_M_invokeERKSt9_Any_dataOS3_SG_"(ptr nonnull readnone align 8 captures(none) %0, ptr noundef nonnull readonly align 8 captures(none) dereferenceable(8) %1, ptr noundef nonnull readonly align 8 captures(none) dereferenceable(8) %2) #1 align 2 {
  %.val = load ptr, ptr %1, align 8, !tbaa !38
  %.val3 = load ptr, ptr %2, align 8, !tbaa !38
  %4 = load ptr, ptr %.val, align 8, !tbaa !17
  %5 = getelementptr inbounds nuw i8, ptr %4, i64 40
  %6 = load ptr, ptr %5, align 8
  %7 = tail call noundef i64 %6(ptr noundef nonnull align 8 dereferenceable(64) %.val) #24
  %8 = load ptr, ptr %.val3, align 8, !tbaa !17
  %9 = getelementptr inbounds nuw i8, ptr %8, i64 40
  %10 = load ptr, ptr %9, align 8
  %11 = tail call noundef i64 %10(ptr noundef nonnull align 8 dereferenceable(64) %.val3) #24
  %12 = icmp ult i64 %7, %11
  ret i1 %12
}